target datalayout = "e-m:e-p270:32:32-p271:32:32-p272:64:64-i64:64-i128:128-f80:128-n8:16:32:64-S128"
target triple = "x86_64-pc-linux-gnu"

%struct.vfstrace_info = type { ptr, ptr, i32, i8, ptr, ptr, ptr }
%struct.vfstrace_file = type { %struct.sqlite3_file, ptr, ptr, ptr }
%struct.sqlite3_file = type { ptr }
%struct.sqlite3_io_methods = type { i32, ptr, ptr, ptr, ptr, ptr, ptr, ptr, ptr, ptr, ptr, ptr, ptr, ptr, ptr, ptr, ptr, ptr, ptr }

@.str.348 = private unnamed_addr constant [8 x i8] c" -> %s\0A\00", align 1
@.str.469 = private unnamed_addr constant [31 x i8] c"%s.xUnfetch(%s,iOff=%lld,p=%p)\00", align 1
@.str.470 = private unnamed_addr constant [10 x i8] c"%s | 0x%x\00", align 1
@.str.471 = private unnamed_addr constant [10 x i8] c"%d (0x%x)\00", align 1

; Function Attrs: nounwind uwtable
define internal void @vfstrace_print_errcode(ptr noundef %0, ptr noundef %1, i32 noundef %2) #0 {
  %4 = alloca ptr, align 8
  %5 = alloca ptr, align 8
  %6 = alloca i32, align 4
  %7 = alloca ptr, align 8
  %8 = alloca [50 x i8], align 16
  store ptr %0, ptr %4, align 8, !tbaa !240
  store ptr %1, ptr %5, align 8, !tbaa !36
  store i32 %2, ptr %6, align 4, !tbaa !3
  call void @llvm.lifetime.start.p0(i64 8, ptr %7) #14
  call void @llvm.lifetime.start.p0(i64 50, ptr %8) #14
  %9 = load i32, ptr %6, align 4, !tbaa !3
  %10 = call ptr @vfstrace_errcode_name(i32 noundef %9)
  store ptr %10, ptr %7, align 8, !tbaa !36
  %11 = load ptr, ptr %7, align 8, !tbaa !36
  %12 = icmp eq ptr %11, null
  br i1 %12, label %13, label %32

13:                                               ; preds = %3
  %14 = load i32, ptr %6, align 4, !tbaa !3
  %15 = and i32 %14, 255
  %16 = call ptr @vfstrace_errcode_name(i32 noundef %15)
  store ptr %16, ptr %7, align 8, !tbaa !36
  %17 = load ptr, ptr %7, align 8, !tbaa !36
  %18 = icmp ne ptr %17, null
  br i1 %18, label %19, label %25

19:                                               ; preds = %13
  %20 = getelementptr inbounds [50 x i8], ptr %8, i64 0, i64 0
  %21 = load ptr, ptr %7, align 8, !tbaa !36
  %22 = load i32, ptr %6, align 4, !tbaa !3
  %23 = and i32 %22, 16776960
  %24 = call ptr (i32, ptr, ptr, ...) @sqlite3_snprintf(i32 noundef 50, ptr noundef %20, ptr noundef @.str.470, ptr noundef %21, i32 noundef %23)
  br label %30

25:                                               ; preds = %13
  %26 = getelementptr inbounds [50 x i8], ptr %8, i64 0, i64 0
  %27 = load i32, ptr %6, align 4, !tbaa !3
  %28 = load i32, ptr %6, align 4, !tbaa !3
  %29 = call ptr (i32, ptr, ptr, ...) @sqlite3_snprintf(i32 noundef 50, ptr noundef %26, ptr noundef @.str.471, i32 noundef %27, i32 noundef %28)
  br label %30

30:                                               ; preds = %25, %19
  %31 = getelementptr inbounds [50 x i8], ptr %8, i64 0, i64 0
  store ptr %31, ptr %7, align 8, !tbaa !36
  br label %32

32:                                               ; preds = %30, %3
  %33 = load ptr, ptr %4, align 8, !tbaa !240
  %34 = load ptr, ptr %5, align 8, !tbaa !36
  %35 = load ptr, ptr %7, align 8, !tbaa !36
  call void (ptr, ptr, ...) @vfstrace_printf(ptr noundef %33, ptr noundef %34, ptr noundef %35)
  call void @llvm.lifetime.end.p0(i64 50, ptr %8) #14
  call void @llvm.lifetime.end.p0(i64 8, ptr %7) #14
  ret void
}

; Function Attrs: nounwind uwtable
define internal void @vfstraceOnOff(ptr noundef %0, i32 noundef %1) #0 {
  %3 = alloca ptr, align 8
  %4 = alloca i32, align 4
  store ptr %0, ptr %3, align 8, !tbaa !240
  store i32 %1, ptr %4, align 4, !tbaa !3
  %5 = load ptr, ptr %3, align 8, !tbaa !240
  %6 = getelementptr inbounds nuw %struct.vfstrace_info, ptr %5, i32 0, i32 2
  %7 = load i32, ptr %6, align 8, !tbaa !266
  %8 = load i32, ptr %4, align 4, !tbaa !3
  %9 = and i32 %7, %8
  %10 = icmp ne i32 %9, 0
  %11 = zext i1 %10 to i32
  %12 = trunc i32 %11 to i8
  %13 = load ptr, ptr %3, align 8, !tbaa !240
  %14 = getelementptr inbounds nuw %struct.vfstrace_info, ptr %13, i32 0, i32 3
  store i8 %12, ptr %14, align 4, !tbaa !267
  ret void
}

; Function Attrs: nounwind uwtable
define internal i32 @vfstraceUnfetch(ptr noundef %0, i64 noundef %1, ptr noundef %2) #0 {
  %4 = alloca ptr, align 8
  %5 = alloca i64, align 8
  %6 = alloca ptr, align 8
  %7 = alloca ptr, align 8
  %8 = alloca ptr, align 8
  %9 = alloca i32, align 4
  store ptr %0, ptr %4, align 8, !tbaa !268
  store i64 %1, ptr %5, align 8, !tbaa !44
  store ptr %2, ptr %6, align 8, !tbaa !53
  call void @llvm.lifetime.start.p0(i64 8, ptr %7) #14
  %10 = load ptr, ptr %4, align 8, !tbaa !268
  store ptr %10, ptr %7, align 8, !tbaa !270
  call void @llvm.lifetime.start.p0(i64 8, ptr %8) #14
  %11 = load ptr, ptr %7, align 8, !tbaa !270
  %12 = getelementptr inbounds nuw %struct.vfstrace_file, ptr %11, i32 0, i32 1
  %13 = load ptr, ptr %12, align 8, !tbaa !272
  store ptr %13, ptr %8, align 8, !tbaa !240
  call void @llvm.lifetime.start.p0(i64 4, ptr %9) #14
  %14 = load ptr, ptr %8, align 8, !tbaa !240
  call void @vfstraceOnOff(ptr noundef %14, i32 noundef 268435456)
  %15 = load ptr, ptr %8, align 8, !tbaa !240
  %16 = load ptr, ptr %8, align 8, !tbaa !240
  %17 = getelementptr inbounds nuw %struct.vfstrace_info, ptr %16, i32 0, i32 5
  %18 = load ptr, ptr %17, align 8, !tbaa !264
  %19 = load ptr, ptr %7, align 8, !tbaa !270
  %20 = getelementptr inbounds nuw %struct.vfstrace_file, ptr %19, i32 0, i32 2
  %21 = load ptr, ptr %20, align 8, !tbaa !276
  %22 = load i64, ptr %5, align 8, !tbaa !44
  %23 = load ptr, ptr %6, align 8, !tbaa !53
  call void (ptr, ptr, ...) @vfstrace_printf(ptr noundef %15, ptr noundef @.str.469, ptr noundef %18, ptr noundef %21, i64 noundef %22, ptr noundef %23)
  %24 = load ptr, ptr %7, align 8, !tbaa !270
  %25 = getelementptr inbounds nuw %struct.vfstrace_file, ptr %24, i32 0, i32 3
  %26 = load ptr, ptr %25, align 8, !tbaa !277
  %27 = getelementptr inbounds nuw %struct.sqlite3_file, ptr %26, i32 0, i32 0
  %28 = load ptr, ptr %27, align 8, !tbaa !278
  %29 = getelementptr inbounds nuw %struct.sqlite3_io_methods, ptr %28, i32 0, i32 18
  %30 = load ptr, ptr %29, align 8, !tbaa !299
  %31 = load ptr, ptr %7, align 8, !tbaa !270
  %32 = getelementptr inbounds nuw %struct.vfstrace_file, ptr %31, i32 0, i32 3
  %33 = load ptr, ptr %32, align 8, !tbaa !277
  %34 = load i64, ptr %5, align 8, !tbaa !44
  %35 = load ptr, ptr %6, align 8, !tbaa !53
  %36 = call i32 %30(ptr noundef %33, i64 noundef %34, ptr noundef %35)
  store i32 %36, ptr %9, align 4, !tbaa !3
  %37 = load ptr, ptr %8, align 8, !tbaa !240
  %38 = load i32, ptr %9, align 4, !tbaa !3
  call void @vfstrace_print_errcode(ptr noundef %37, ptr noundef @.str.348, i32 noundef %38)
  %39 = load i32, ptr %9, align 4, !tbaa !3
  call void @llvm.lifetime.end.p0(i64 4, ptr %9) #14
  call void @llvm.lifetime.end.p0(i64 8, ptr %8) #14
  call void @llvm.lifetime.end.p0(i64 8, ptr %7) #14
  ret i32 %39
}