; Function Attrs: nounwind uwtable
define internal noundef i32 @vfstraceUnfetch(ptr noundef readonly captures(none) %0, i64 noundef %1, ptr noundef %2) #2 {
  %4 = alloca [50 x i8], align 16
  %5 = getelementptr inbounds nuw i8, ptr %0, i64 8
  %6 = load ptr, ptr %5, align 8, !tbaa !301
  %7 = getelementptr inbounds nuw i8, ptr %6, i64 16
  %8 = load i32, ptr %7, align 8, !tbaa !299
  %9 = lshr i32 %8, 28
  %10 = trunc nuw nsw i32 %9 to i8
  %11 = and i8 %10, 1
  %12 = getelementptr inbounds nuw i8, ptr %6, i64 20
  store i8 %11, ptr %12, align 4, !tbaa !300
  %13 = getelementptr inbounds nuw i8, ptr %6, i64 32
  %14 = load ptr, ptr %13, align 8, !tbaa !297
  %15 = getelementptr inbounds nuw i8, ptr %0, i64 16
  %16 = load ptr, ptr %15, align 8, !tbaa !308
  tail call void (ptr, ptr, ...) @vfstrace_printf(ptr noundef %6, ptr noundef nonnull @.str.469, ptr noundef %14, ptr noundef %16, i64 noundef %1, ptr noundef %2)
  %17 = getelementptr inbounds nuw i8, ptr %0, i64 24
  %18 = load ptr, ptr %17, align 8, !tbaa !309
  %19 = load ptr, ptr %18, align 8, !tbaa !310
  %20 = getelementptr inbounds nuw i8, ptr %19, i64 144
  %21 = load ptr, ptr %20, align 8, !tbaa !330
  %22 = tail call i32 %21(ptr noundef nonnull %18, i64 noundef %1, ptr noundef %2) #43
  call void @llvm.lifetime.start.p0(i64 50, ptr nonnull %4) #43
  %23 = tail call fastcc ptr @vfstrace_errcode_name(i32 noundef %22)
  %24 = icmp eq ptr %23, null
  br i1 %24, label %25, label %vfstrace_print_errcode.exit

25:                                               ; preds = %3
  %26 = and i32 %22, 255
  %27 = tail call fastcc ptr @vfstrace_errcode_name(i32 noundef %26)
  %.not.i = icmp eq ptr %27, null
  br i1 %.not.i, label %31, label %28

28:                                               ; preds = %25
  %29 = and i32 %22, 16776960
  %30 = call ptr (i32, ptr, ptr, ...) @sqlite3_snprintf(i32 noundef 50, ptr noundef nonnull %4, ptr noundef nonnull @.str.470, ptr noundef nonnull %27, i32 noundef %29) #43
  br label %vfstrace_print_errcode.exit

31:                                               ; preds = %25
  %32 = call ptr (i32, ptr, ptr, ...) @sqlite3_snprintf(i32 noundef 50, ptr noundef nonnull %4, ptr noundef nonnull @.str.471, i32 noundef %22, i32 noundef %22) #43
  br label %vfstrace_print_errcode.exit

vfstrace_print_errcode.exit:                      ; preds = %3, %28, %31
  %.0.i = phi ptr [ %23, %3 ], [ %4, %31 ], [ %4, %28 ]
  call void (ptr, ptr, ...) @vfstrace_printf(ptr noundef nonnull readonly %6, ptr noundef nonnull @.str.348, ptr noundef nonnull %.0.i)
  call void @llvm.lifetime.end.p0(i64 50, ptr nonnull %4) #43
  ret i32 %22
}